target datalayout = "e-m:e-p270:32:32-p271:32:32-p272:64:64-i64:64-i128:128-f80:128-n8:16:32:64-S128"
target triple = "x86_64-pc-linux-gnu"

@.str.2 = private unnamed_addr constant [12 x i8] c"snapbuild.c\00", align 1
@my_wait_event_info = external global ptr, align 8
@.str.56 = private unnamed_addr constant [29 x i8] c"could not read file \22%s\22: %m\00", align 1
@__func__.SnapBuildRestoreContents = private unnamed_addr constant [25 x i8] c"SnapBuildRestoreContents\00", align 1
@.str.57 = private unnamed_addr constant [41 x i8] c"could not read file \22%s\22: read %d of %zu\00", align 1

; Function Attrs: inlinehint nounwind uwtable
define internal void @pgstat_report_wait_end() #3 {
  %1 = load ptr, ptr @my_wait_event_info, align 8
  store volatile i32 0, ptr %1, align 4
  ret void
}

; Function Attrs: inlinehint nounwind uwtable
define internal void @pgstat_report_wait_start(i32 noundef %0) #3 {
  %2 = alloca i32, align 4
  store i32 %0, ptr %2, align 4
  %3 = load i32, ptr %2, align 4
  %4 = load ptr, ptr @my_wait_event_info, align 8
  store volatile i32 %3, ptr %4, align 4
  ret void
}

; Function Attrs: nounwind uwtable
define internal void @SnapBuildRestoreContents(i32 noundef %0, ptr noundef %1, i64 noundef %2, ptr noundef %3) #0 {
  %5 = alloca i32, align 4
  %6 = alloca ptr, align 8
  %7 = alloca i64, align 8
  %8 = alloca ptr, align 8
  %9 = alloca i32, align 4
  %10 = alloca i32, align 4
  store i32 %0, ptr %5, align 4
  store ptr %1, ptr %6, align 8
  store i64 %2, ptr %7, align 8
  store ptr %3, ptr %8, align 8
  call void @llvm.lifetime.start.p0(i64 4, ptr %9) #9
  call void @pgstat_report_wait_start(i32 noundef 167772210)
  %11 = load i32, ptr %5, align 4
  %12 = load ptr, ptr %6, align 8
  %13 = load i64, ptr %7, align 8
  %14 = call i64 @read(i32 noundef %11, ptr noundef %12, i64 noundef %13)
  %15 = trunc i64 %14 to i32
  store i32 %15, ptr %9, align 4
  call void @pgstat_report_wait_end()
  %16 = load i32, ptr %9, align 4
  %17 = sext i32 %16 to i64
  %18 = load i64, ptr %7, align 8
  %19 = icmp ne i64 %17, %18
  br i1 %19, label %20, label %58

20:                                               ; preds = %4
  call void @llvm.lifetime.start.p0(i64 4, ptr %10) #9
  %21 = call ptr @__errno_location() #11
  %22 = load i32, ptr %21, align 4
  store i32 %22, ptr %10, align 4
  %23 = load i32, ptr %5, align 4
  %24 = call i32 @CloseTransientFile(i32 noundef %23)
  %25 = load i32, ptr %9, align 4
  %26 = icmp slt i32 %25, 0
  br i1 %26, label %27, label %42

27:                                               ; preds = %20
  %28 = load i32, ptr %10, align 4
  %29 = call ptr @__errno_location() #11
  store i32 %28, ptr %29, align 4
  br label %30

30:                                               ; preds = %27
  br i1 true, label %31, label %33

31:                                               ; preds = %30
  %32 = call zeroext i1 @errstart_cold(i32 noundef 21, ptr noundef null) #10
  br i1 %32, label %35, label %39

33:                                               ; preds = %30
  %34 = call zeroext i1 @errstart(i32 noundef 21, ptr noundef null)
  br i1 %34, label %35, label %39

35:                                               ; preds = %33, %31
  %36 = call i32 @errcode_for_file_access()
  %37 = load ptr, ptr %8, align 8
  %38 = call i32 (ptr, ...) @errmsg(ptr noundef @.str.56, ptr noundef %37)
  call void @errfinish(ptr noundef @.str.2, i32 noundef 1903, ptr noundef @__func__.SnapBuildRestoreContents)
  br label %39

39:                                               ; preds = %35, %33, %31
  unreachable

40:                                               ; No predecessors!
  br label %41

41:                                               ; preds = %40
  br label %57

42:                                               ; preds = %20
  br label %43

43:                                               ; preds = %42
  br i1 true, label %44, label %46

44:                                               ; preds = %43
  %45 = call zeroext i1 @errstart_cold(i32 noundef 21, ptr noundef null) #10
  br i1 %45, label %48, label %54

46:                                               ; preds = %43
  %47 = call zeroext i1 @errstart(i32 noundef 21, ptr noundef null)
  br i1 %47, label %48, label %54

48:                                               ; preds = %46, %44
  %49 = call i32 @errcode(i32 noundef 16779816)
  %50 = load ptr, ptr %8, align 8
  %51 = load i32, ptr %9, align 4
  %52 = load i64, ptr %7, align 8
  %53 = call i32 (ptr, ...) @errmsg(ptr noundef @.str.57, ptr noundef %50, i32 noundef %51, i64 noundef %52)
  call void @errfinish(ptr noundef @.str.2, i32 noundef 1909, ptr noundef @__func__.SnapBuildRestoreContents)
  br label %54

54:                                               ; preds = %48, %46, %44
  unreachable

55:                                               ; No predecessors!
  br label %56

56:                                               ; preds = %55
  br label %57

57:                                               ; preds = %56, %41
  call void @llvm.lifetime.end.p0(i64 4, ptr %10) #9
  br label %58

58:                                               ; preds = %57, %4
  call void @llvm.lifetime.end.p0(i64 4, ptr %9) #9
  ret void
}