; Function Attrs: nounwind uwtable
define internal fastcc void @SnapBuildRestoreContents(i32 noundef range(i32 0, -2147483648) %0, ptr noundef captures(none) %1, i64 noundef %2, ptr noundef %3) unnamed_addr #0 {
  %5 = load ptr, ptr @my_wait_event_info, align 8
  store volatile i32 167772210, ptr %5, align 4
  %6 = tail call i64 @read(i32 noundef %0, ptr noundef %1, i64 noundef %2) #14
  %7 = trunc i64 %6 to i32
  %8 = load ptr, ptr @my_wait_event_info, align 8
  store volatile i32 0, ptr %8, align 4
  %sext = shl i64 %6, 32
  %9 = ashr exact i64 %sext, 32
  %.not = icmp eq i64 %9, %2
  br i1 %.not, label %23, label %10

10:                                               ; preds = %4
  %11 = tail call ptr @__errno_location() #16
  %12 = load i32, ptr %11, align 4
  %13 = tail call i32 @CloseTransientFile(i32 noundef %0) #14
  %14 = icmp slt i32 %7, 0
  br i1 %14, label %15, label %19

15:                                               ; preds = %10
  store i32 %12, ptr %11, align 4
  %16 = tail call zeroext i1 @errstart_cold(i32 noundef 21, ptr noundef null) #15
  tail call void @llvm.assume(i1 %16)
  %17 = tail call i32 @errcode_for_file_access() #14
  %18 = tail call i32 (ptr, ...) @errmsg(ptr noundef nonnull @.str.56, ptr noundef %3) #14
  tail call void @errfinish(ptr noundef nonnull @.str.2, i32 noundef 1903, ptr noundef nonnull @__func__.SnapBuildRestoreContents) #14
  unreachable

19:                                               ; preds = %10
  %20 = tail call zeroext i1 @errstart_cold(i32 noundef 21, ptr noundef null) #15
  tail call void @llvm.assume(i1 %20)
  %21 = tail call i32 @errcode(i32 noundef 16779816) #14
  %22 = tail call i32 (ptr, ...) @errmsg(ptr noundef nonnull @.str.57, ptr noundef %3, i32 noundef %7, i64 noundef %2) #14
  tail call void @errfinish(ptr noundef nonnull @.str.2, i32 noundef 1909, ptr noundef nonnull @__func__.SnapBuildRestoreContents) #14
  unreachable

23:                                               ; preds = %4
  ret void
}